target datalayout = "e-m:e-p270:32:32-p271:32:32-p272:64:64-i64:64-i128:128-f80:128-n8:16:32:64-S128"
target triple = "x86_64-pc-linux-gnu"

%struct._typeobject = type { %struct.PyVarObject, ptr, i64, i64, ptr, i64, ptr, ptr, ptr, ptr, ptr, ptr, ptr, ptr, ptr, ptr, ptr, ptr, ptr, i64, ptr, ptr, ptr, ptr, i64, ptr, ptr, ptr, ptr, ptr, ptr, ptr, ptr, ptr, i64, ptr, ptr, ptr, ptr, ptr, ptr, ptr, ptr, ptr, ptr, ptr, i32, ptr, ptr, i8, i16 }
%struct.PyVarObject = type { %struct._object, i64 }
%struct._object = type { %union.anon, ptr }
%union.anon = type { i64 }

@PyFrame_Type = external global %struct._typeobject, align 8
@PyExc_TypeError = external global ptr, align 8
@.str.9 = private unnamed_addr constant [25 x i8] c"argument must be a frame\00", align 1
@.str.15 = private unnamed_addr constant [3 x i8] c"Oy\00", align 1

; Function Attrs: inlinehint nounwind uwtable
define internal ptr @_Py_TYPE(ptr noundef %0) #2 {
  %2 = alloca ptr, align 8
  store ptr %0, ptr %2, align 8, !tbaa !3
  %3 = load ptr, ptr %2, align 8, !tbaa !3
  %4 = getelementptr inbounds nuw %struct._object, ptr %3, i32 0, i32 1
  %5 = load ptr, ptr %4, align 8, !tbaa !16
  ret ptr %5
}

; Function Attrs: inlinehint nounwind uwtable
define internal i32 @Py_IS_TYPE(ptr noundef %0, ptr noundef %1) #2 {
  %3 = alloca ptr, align 8
  %4 = alloca ptr, align 8
  store ptr %0, ptr %3, align 8, !tbaa !3
  store ptr %1, ptr %4, align 8, !tbaa !14
  %5 = load ptr, ptr %3, align 8, !tbaa !3
  %6 = call ptr @_Py_TYPE(ptr noundef %5)
  %7 = load ptr, ptr %4, align 8, !tbaa !14
  %8 = icmp eq ptr %6, %7
  %9 = zext i1 %8 to i32
  ret i32 %9
}

; Function Attrs: nounwind uwtable
define internal ptr @frame_getvarstring(ptr noundef %0, ptr noundef %1) #0 {
  %3 = alloca ptr, align 8
  %4 = alloca ptr, align 8
  %5 = alloca ptr, align 8
  %6 = alloca ptr, align 8
  %7 = alloca ptr, align 8
  %8 = alloca i32, align 4
  store ptr %0, ptr %4, align 8, !tbaa !3
  store ptr %1, ptr %5, align 8, !tbaa !3
  call void @llvm.lifetime.start.p0(i64 8, ptr %6) #5
  call void @llvm.lifetime.start.p0(i64 8, ptr %7) #5
  %9 = load ptr, ptr %5, align 8, !tbaa !3
  %10 = call i32 (ptr, ptr, ...) @PyArg_ParseTuple(ptr noundef %9, ptr noundef @.str.15, ptr noundef %6, ptr noundef %7)
  %11 = icmp ne i32 %10, 0
  br i1 %11, label %13, label %12

12:                                               ; preds = %2
  store ptr null, ptr %3, align 8
  store i32 1, ptr %8, align 4
  br label %23

13:                                               ; preds = %2
  %14 = load ptr, ptr %6, align 8, !tbaa !3
  %15 = call i32 @Py_IS_TYPE(ptr noundef %14, ptr noundef @PyFrame_Type)
  %16 = icmp ne i32 %15, 0
  br i1 %16, label %19, label %17

17:                                               ; preds = %13
  %18 = load ptr, ptr @PyExc_TypeError, align 8, !tbaa !3
  call void @PyErr_SetString(ptr noundef %18, ptr noundef @.str.9)
  store ptr null, ptr %3, align 8
  store i32 1, ptr %8, align 4
  br label %23

19:                                               ; preds = %13
  %20 = load ptr, ptr %6, align 8, !tbaa !3
  %21 = load ptr, ptr %7, align 8, !tbaa !12
  %22 = call ptr @PyFrame_GetVarString(ptr noundef %20, ptr noundef %21)
  store ptr %22, ptr %3, align 8
  store i32 1, ptr %8, align 4
  br label %23

23:                                               ; preds = %19, %17, %12
  call void @llvm.lifetime.end.p0(i64 8, ptr %7) #5
  call void @llvm.lifetime.end.p0(i64 8, ptr %6) #5
  %24 = load ptr, ptr %3, align 8
  ret ptr %24
}