; Function Attrs: nounwind uwtable
define internal ptr @frame_getvarstring(ptr readnone captures(none) %0, ptr noundef %1) #0 {
  %3 = alloca ptr, align 8
  %4 = alloca ptr, align 8
  call void @llvm.lifetime.start.p0(i64 8, ptr nonnull %3) #4
  call void @llvm.lifetime.start.p0(i64 8, ptr nonnull %4) #4
  %5 = call i32 (ptr, ptr, ...) @PyArg_ParseTuple(ptr noundef %1, ptr noundef nonnull @.str.15, ptr noundef nonnull %3, ptr noundef nonnull %4) #4
  %.not = icmp eq i32 %5, 0
  br i1 %.not, label %14, label %6

6:                                                ; preds = %2
  %7 = load ptr, ptr %3, align 8, !tbaa !9
  %8 = getelementptr i8, ptr %7, i64 8
  %.val = load ptr, ptr %8, align 8, !tbaa !3
  %.not3 = icmp eq ptr %.val, @PyFrame_Type
  br i1 %.not3, label %11, label %9

9:                                                ; preds = %6
  %10 = load ptr, ptr @PyExc_TypeError, align 8, !tbaa !9
  call void @PyErr_SetString(ptr noundef %10, ptr noundef nonnull @.str.9) #4
  br label %14

11:                                               ; preds = %6
  %12 = load ptr, ptr %4, align 8, !tbaa !11
  %13 = call ptr @PyFrame_GetVarString(ptr noundef nonnull %7, ptr noundef %12) #4
  br label %14

14:                                               ; preds = %2, %11, %9
  %.0 = phi ptr [ %13, %11 ], [ null, %9 ], [ null, %2 ]
  call void @llvm.lifetime.end.p0(i64 8, ptr nonnull %4) #4
  call void @llvm.lifetime.end.p0(i64 8, ptr nonnull %3) #4
  ret ptr %.0
}